target datalayout = "e-m:e-p270:32:32-p271:32:32-p272:64:64-i64:64-i128:128-f80:128-n8:16:32:64-S128"
target triple = "x86_64-unknown-linux-gnu"

; Function Attrs: nounwind sspstrong uwtable
define hidden i32 @FLAC__bitwriter_write_unary_unsigned(ptr noundef %bw, i32 noundef %val) #0 {
entry:
  %retval = alloca i32, align 4
  %bw.addr = alloca ptr, align 8
  %val.addr = alloca i32, align 4
  store ptr %bw, ptr %bw.addr, align 8
  store i32 %val, ptr %val.addr, align 4
  %0 = load i32, ptr %val.addr, align 4
  %cmp = icmp ult i32 %0, 32
  br i1 %cmp, label %if.then, label %if.else

if.then:                                          ; preds = %entry
  %1 = load ptr, ptr %bw.addr, align 8
  %2 = load i32, ptr %val.addr, align 4
  %inc = add i32 %2, 1
  store i32 %inc, ptr %val.addr, align 4
  %call = call i32 @FLAC__bitwriter_write_raw_uint32_nocheck(ptr noundef %1, i32 noundef 1, i32 noundef %inc)
  store i32 %call, ptr %retval, align 4
  br label %return

if.else:                                          ; preds = %entry
  %3 = load ptr, ptr %bw.addr, align 8
  %4 = load i32, ptr %val.addr, align 4
  %call1 = call i32 @FLAC__bitwriter_write_zeroes(ptr noundef %3, i32 noundef %4)
  %tobool = icmp ne i32 %call1, 0
  br i1 %tobool, label %land.rhs, label %land.end

land.rhs:                                         ; preds = %if.else
  %5 = load ptr, ptr %bw.addr, align 8
  %call2 = call i32 @FLAC__bitwriter_write_raw_uint32_nocheck(ptr noundef %5, i32 noundef 1, i32 noundef 1)
  %tobool3 = icmp ne i32 %call2, 0
  br label %land.end

land.end:                                         ; preds = %land.rhs, %if.else
  %6 = phi i1 [ false, %if.else ], [ %tobool3, %land.rhs ]
  %land.ext = zext i1 %6 to i32
  store i32 %land.ext, ptr %retval, align 4
  br label %return

return:                                           ; preds = %land.end, %if.then
  %7 = load i32, ptr %retval, align 4
  ret i32 %7
}