; Function Attrs: nounwind sspstrong uwtable
define hidden range(i32 0, 2) i32 @FLAC__bitwriter_write_unary_unsigned(ptr noundef %bw, i32 noundef %val) local_unnamed_addr #7 {
entry:
  %cmp = icmp ult i32 %val, 32
  br i1 %cmp, label %if.then, label %if.else

if.then:                                          ; preds = %entry
  %inc = add nuw nsw i32 %val, 1
  br label %return.sink.split

if.else:                                          ; preds = %entry
  %call1 = tail call i32 @FLAC__bitwriter_write_zeroes(ptr noundef %bw, i32 noundef %val)
  %tobool.not = icmp eq i32 %call1, 0
  br i1 %tobool.not, label %return, label %return.sink.split

return.sink.split:                                ; preds = %if.else, %if.then
  %.sink = phi i32 [ %inc, %if.then ], [ 1, %if.else ]
  %call2 = tail call fastcc i32 @FLAC__bitwriter_write_raw_uint32_nocheck(ptr noundef %bw, i32 noundef 1, i32 noundef %.sink)
  br label %return

return:                                           ; preds = %return.sink.split, %if.else
  %retval.0 = phi i32 [ 0, %if.else ], [ %call2, %return.sink.split ]
  ret i32 %retval.0
}